target datalayout = "e-m:e-p270:32:32-p271:32:32-p272:64:64-i64:64-i128:128-f80:128-n8:16:32:64-S128"
target triple = "x86_64-pc-linux-gnu"

%struct.mlib_image = type { i32, i32, i32, i32, i32, i32, ptr, ptr, [4 x i8], i32, i32, [3 x i32] }
%struct.LookupArrayInfo = type { ptr, i32, ptr }

@lookupShortData.indexes = internal global [8 x i32] [i32 3, i32 2, i32 1, i32 0, i32 7, i32 6, i32 5, i32 4], align 16

; Function Attrs: nounwind uwtable
define internal i32 @lookupShortData(ptr noundef %0, ptr noundef %1, ptr noundef %2) #0 {
  %4 = alloca i32, align 4
  %5 = alloca ptr, align 8
  %6 = alloca ptr, align 8
  %7 = alloca ptr, align 8
  %8 = alloca i32, align 4
  %9 = alloca i32, align 4
  %10 = alloca i32, align 4
  %11 = alloca ptr, align 8
  %12 = alloca ptr, align 8
  %13 = alloca i32, align 4
  %14 = alloca i32, align 4
  %15 = alloca i32, align 4
  %16 = alloca ptr, align 8
  %17 = alloca ptr, align 8
  %18 = alloca i16, align 2
  %19 = alloca i32, align 4
  %20 = alloca ptr, align 8
  %21 = alloca i16, align 2
  store ptr %0, ptr %5, align 8
  store ptr %1, ptr %6, align 8
  store ptr %2, ptr %7, align 8
  store i32 7, ptr %10, align 4
  %22 = load ptr, ptr %5, align 8
  %23 = getelementptr inbounds %struct.mlib_image, ptr %22, i32 0, i32 6
  %24 = load ptr, ptr %23, align 8
  store ptr %24, ptr %11, align 8
  %25 = load ptr, ptr %6, align 8
  %26 = getelementptr inbounds %struct.mlib_image, ptr %25, i32 0, i32 6
  %27 = load ptr, ptr %26, align 8
  store ptr %27, ptr %12, align 8
  %28 = load ptr, ptr %5, align 8
  %29 = getelementptr inbounds %struct.mlib_image, ptr %28, i32 0, i32 2
  %30 = load i32, ptr %29, align 8
  %31 = load ptr, ptr %6, align 8
  %32 = getelementptr inbounds %struct.mlib_image, ptr %31, i32 0, i32 2
  %33 = load i32, ptr %32, align 8
  %34 = icmp ne i32 %30, %33
  br i1 %34, label %43, label %35

35:                                               ; preds = %3
  %36 = load ptr, ptr %5, align 8
  %37 = getelementptr inbounds %struct.mlib_image, ptr %36, i32 0, i32 3
  %38 = load i32, ptr %37, align 4
  %39 = load ptr, ptr %6, align 8
  %40 = getelementptr inbounds %struct.mlib_image, ptr %39, i32 0, i32 3
  %41 = load i32, ptr %40, align 4
  %42 = icmp ne i32 %38, %41
  br i1 %42, label %43, label %44

43:                                               ; preds = %35, %3
  store i32 0, ptr %4, align 4
  br label %287

44:                                               ; preds = %35
  store i32 0, ptr %9, align 4
  br label %45

45:                                               ; preds = %283, %44
  %46 = load i32, ptr %9, align 4
  %47 = load ptr, ptr %5, align 8
  %48 = getelementptr inbounds %struct.mlib_image, ptr %47, i32 0, i32 3
  %49 = load i32, ptr %48, align 4
  %50 = icmp slt i32 %46, %49
  br i1 %50, label %51, label %286

51:                                               ; preds = %45
  %52 = load ptr, ptr %5, align 8
  %53 = getelementptr inbounds %struct.mlib_image, ptr %52, i32 0, i32 2
  %54 = load i32, ptr %53, align 8
  store i32 %54, ptr %15, align 4
  %55 = load ptr, ptr %11, align 8
  store ptr %55, ptr %16, align 8
  %56 = load ptr, ptr %12, align 8
  store ptr %56, ptr %17, align 8
  br label %57

57:                                               ; preds = %78, %51
  %58 = load ptr, ptr %17, align 8
  %59 = ptrtoint ptr %58 to i64
  %60 = and i64 %59, 3
  %61 = icmp ne i64 %60, 0
  br i1 %61, label %62, label %65

62:                                               ; preds = %57
  %63 = load i32, ptr %15, align 4
  %64 = icmp sgt i32 %63, 0
  br label %65

65:                                               ; preds = %62, %57
  %66 = phi i1 [ false, %57 ], [ %64, %62 ]
  br i1 %66, label %67, label %90

67:                                               ; preds = %65
  %68 = load ptr, ptr %16, align 8
  %69 = getelementptr inbounds i16, ptr %68, i32 1
  store ptr %69, ptr %16, align 8
  %70 = load i16, ptr %68, align 2
  store i16 %70, ptr %18, align 2
  %71 = load i16, ptr %18, align 2
  %72 = zext i16 %71 to i32
  %73 = load ptr, ptr %7, align 8
  %74 = getelementptr inbounds %struct.LookupArrayInfo, ptr %73, i32 0, i32 1
  %75 = load i32, ptr %74, align 8
  %76 = icmp sge i32 %72, %75
  br i1 %76, label %77, label %78

77:                                               ; preds = %67
  store i32 0, ptr %4, align 4
  br label %287

78:                                               ; preds = %67
  %79 = load ptr, ptr %7, align 8
  %80 = getelementptr inbounds %struct.LookupArrayInfo, ptr %79, i32 0, i32 2
  %81 = load ptr, ptr %80, align 8
  %82 = load i16, ptr %18, align 2
  %83 = zext i16 %82 to i64
  %84 = getelementptr inbounds i8, ptr %81, i64 %83
  %85 = load i8, ptr %84, align 1
  %86 = load ptr, ptr %17, align 8
  %87 = getelementptr inbounds i8, ptr %86, i32 1
  store ptr %87, ptr %17, align 8
  store i8 %85, ptr %86, align 1
  %88 = load i32, ptr %15, align 4
  %89 = add nsw i32 %88, -1
  store i32 %89, ptr %15, align 4
  br label %57, !llvm.loop !41

90:                                               ; preds = %65
  %91 = load i32, ptr %15, align 4
  %92 = sdiv i32 %91, 8
  store i32 %92, ptr %13, align 4
  %93 = load i32, ptr %15, align 4
  %94 = srem i32 %93, 8
  store i32 %94, ptr %14, align 4
  %95 = load i32, ptr %13, align 4
  store i32 %95, ptr %8, align 4
  br label %96

96:                                               ; preds = %237, %90
  %97 = load i32, ptr %8, align 4
  %98 = icmp ne i32 %97, 0
  br i1 %98, label %99, label %240

99:                                               ; preds = %96
  store i32 0, ptr %19, align 4
  %100 = load ptr, ptr %17, align 8
  store ptr %100, ptr %20, align 8
  store i32 0, ptr %19, align 4
  br label %101

101:                                              ; preds = %117, %99
  %102 = load i32, ptr %19, align 4
  %103 = icmp slt i32 %102, 8
  br i1 %103, label %104, label %120

104:                                              ; preds = %101
  %105 = load ptr, ptr %16, align 8
  %106 = load i32, ptr %19, align 4
  %107 = sext i32 %106 to i64
  %108 = getelementptr inbounds i16, ptr %105, i64 %107
  %109 = load i16, ptr %108, align 2
  %110 = zext i16 %109 to i32
  %111 = load ptr, ptr %7, align 8
  %112 = getelementptr inbounds %struct.LookupArrayInfo, ptr %111, i32 0, i32 1
  %113 = load i32, ptr %112, align 8
  %114 = icmp sge i32 %110, %113
  br i1 %114, label %115, label %116

115:                                              ; preds = %104
  store i32 0, ptr %4, align 4
  br label %287

116:                                              ; preds = %104
  br label %117

117:                                              ; preds = %116
  %118 = load i32, ptr %19, align 4
  %119 = add nsw i32 %118, 1
  store i32 %119, ptr %19, align 4
  br label %101, !llvm.loop !42

120:                                              ; preds = %101
  %121 = load ptr, ptr %7, align 8
  %122 = getelementptr inbounds %struct.LookupArrayInfo, ptr %121, i32 0, i32 2
  %123 = load ptr, ptr %122, align 8
  %124 = load ptr, ptr %16, align 8
  %125 = load i32, ptr @lookupShortData.indexes, align 16
  %126 = sext i32 %125 to i64
  %127 = getelementptr inbounds i16, ptr %124, i64 %126
  %128 = load i16, ptr %127, align 2
  %129 = zext i16 %128 to i64
  %130 = getelementptr inbounds i8, ptr %123, i64 %129
  %131 = load i8, ptr %130, align 1
  %132 = zext i8 %131 to i32
  %133 = shl i32 %132, 24
  %134 = load ptr, ptr %7, align 8
  %135 = getelementptr inbounds %struct.LookupArrayInfo, ptr %134, i32 0, i32 2
  %136 = load ptr, ptr %135, align 8
  %137 = load ptr, ptr %16, align 8
  %138 = load i32, ptr getelementptr inbounds ([8 x i32], ptr @lookupShortData.indexes, i64 0, i64 1), align 4
  %139 = sext i32 %138 to i64
  %140 = getelementptr inbounds i16, ptr %137, i64 %139
  %141 = load i16, ptr %140, align 2
  %142 = zext i16 %141 to i64
  %143 = getelementptr inbounds i8, ptr %136, i64 %142
  %144 = load i8, ptr %143, align 1
  %145 = zext i8 %144 to i32
  %146 = shl i32 %145, 16
  %147 = or i32 %133, %146
  %148 = load ptr, ptr %7, align 8
  %149 = getelementptr inbounds %struct.LookupArrayInfo, ptr %148, i32 0, i32 2
  %150 = load ptr, ptr %149, align 8
  %151 = load ptr, ptr %16, align 8
  %152 = load i32, ptr getelementptr inbounds ([8 x i32], ptr @lookupShortData.indexes, i64 0, i64 2), align 8
  %153 = sext i32 %152 to i64
  %154 = getelementptr inbounds i16, ptr %151, i64 %153
  %155 = load i16, ptr %154, align 2
  %156 = zext i16 %155 to i64
  %157 = getelementptr inbounds i8, ptr %150, i64 %156
  %158 = load i8, ptr %157, align 1
  %159 = zext i8 %158 to i32
  %160 = shl i32 %159, 8
  %161 = or i32 %147, %160
  %162 = load ptr, ptr %7, align 8
  %163 = getelementptr inbounds %struct.LookupArrayInfo, ptr %162, i32 0, i32 2
  %164 = load ptr, ptr %163, align 8
  %165 = load ptr, ptr %16, align 8
  %166 = load i32, ptr getelementptr inbounds ([8 x i32], ptr @lookupShortData.indexes, i64 0, i64 3), align 4
  %167 = sext i32 %166 to i64
  %168 = getelementptr inbounds i16, ptr %165, i64 %167
  %169 = load i16, ptr %168, align 2
  %170 = zext i16 %169 to i64
  %171 = getelementptr inbounds i8, ptr %164, i64 %170
  %172 = load i8, ptr %171, align 1
  %173 = zext i8 %172 to i32
  %174 = or i32 %161, %173
  %175 = load ptr, ptr %20, align 8
  %176 = getelementptr inbounds i32, ptr %175, i64 0
  store i32 %174, ptr %176, align 4
  %177 = load ptr, ptr %7, align 8
  %178 = getelementptr inbounds %struct.LookupArrayInfo, ptr %177, i32 0, i32 2
  %179 = load ptr, ptr %178, align 8
  %180 = load ptr, ptr %16, align 8
  %181 = load i32, ptr getelementptr inbounds ([8 x i32], ptr @lookupShortData.indexes, i64 0, i64 4), align 16
  %182 = sext i32 %181 to i64
  %183 = getelementptr inbounds i16, ptr %180, i64 %182
  %184 = load i16, ptr %183, align 2
  %185 = zext i16 %184 to i64
  %186 = getelementptr inbounds i8, ptr %179, i64 %185
  %187 = load i8, ptr %186, align 1
  %188 = zext i8 %187 to i32
  %189 = shl i32 %188, 24
  %190 = load ptr, ptr %7, align 8
  %191 = getelementptr inbounds %struct.LookupArrayInfo, ptr %190, i32 0, i32 2
  %192 = load ptr, ptr %191, align 8
  %193 = load ptr, ptr %16, align 8
  %194 = load i32, ptr getelementptr inbounds ([8 x i32], ptr @lookupShortData.indexes, i64 0, i64 5), align 4
  %195 = sext i32 %194 to i64
  %196 = getelementptr inbounds i16, ptr %193, i64 %195
  %197 = load i16, ptr %196, align 2
  %198 = zext i16 %197 to i64
  %199 = getelementptr inbounds i8, ptr %192, i64 %198
  %200 = load i8, ptr %199, align 1
  %201 = zext i8 %200 to i32
  %202 = shl i32 %201, 16
  %203 = or i32 %189, %202
  %204 = load ptr, ptr %7, align 8
  %205 = getelementptr inbounds %struct.LookupArrayInfo, ptr %204, i32 0, i32 2
  %206 = load ptr, ptr %205, align 8
  %207 = load ptr, ptr %16, align 8
  %208 = load i32, ptr getelementptr inbounds ([8 x i32], ptr @lookupShortData.indexes, i64 0, i64 6), align 8
  %209 = sext i32 %208 to i64
  %210 = getelementptr inbounds i16, ptr %207, i64 %209
  %211 = load i16, ptr %210, align 2
  %212 = zext i16 %211 to i64
  %213 = getelementptr inbounds i8, ptr %206, i64 %212
  %214 = load i8, ptr %213, align 1
  %215 = zext i8 %214 to i32
  %216 = shl i32 %215, 8
  %217 = or i32 %203, %216
  %218 = load ptr, ptr %7, align 8
  %219 = getelementptr inbounds %struct.LookupArrayInfo, ptr %218, i32 0, i32 2
  %220 = load ptr, ptr %219, align 8
  %221 = load ptr, ptr %16, align 8
  %222 = load i32, ptr getelementptr inbounds ([8 x i32], ptr @lookupShortData.indexes, i64 0, i64 7), align 4
  %223 = sext i32 %222 to i64
  %224 = getelementptr inbounds i16, ptr %221, i64 %223
  %225 = load i16, ptr %224, align 2
  %226 = zext i16 %225 to i64
  %227 = getelementptr inbounds i8, ptr %220, i64 %226
  %228 = load i8, ptr %227, align 1
  %229 = zext i8 %228 to i32
  %230 = or i32 %217, %229
  %231 = load ptr, ptr %20, align 8
  %232 = getelementptr inbounds i32, ptr %231, i64 1
  store i32 %230, ptr %232, align 4
  %233 = load ptr, ptr %17, align 8
  %234 = getelementptr inbounds i8, ptr %233, i64 8
  store ptr %234, ptr %17, align 8
  %235 = load ptr, ptr %16, align 8
  %236 = getelementptr inbounds i16, ptr %235, i64 8
  store ptr %236, ptr %16, align 8
  br label %237

237:                                              ; preds = %120
  %238 = load i32, ptr %8, align 4
  %239 = add nsw i32 %238, -1
  store i32 %239, ptr %8, align 4
  br label %96, !llvm.loop !43

240:                                              ; preds = %96
  %241 = load i32, ptr %14, align 4
  store i32 %241, ptr %8, align 4
  br label %242

242:                                              ; preds = %266, %240
  %243 = load i32, ptr %8, align 4
  %244 = icmp ne i32 %243, 0
  br i1 %244, label %245, label %269

245:                                              ; preds = %242
  %246 = load ptr, ptr %16, align 8
  %247 = getelementptr inbounds i16, ptr %246, i32 1
  store ptr %247, ptr %16, align 8
  %248 = load i16, ptr %246, align 2
  store i16 %248, ptr %21, align 2
  %249 = load i16, ptr %21, align 2
  %250 = zext i16 %249 to i32
  %251 = load ptr, ptr %7, align 8
  %252 = getelementptr inbounds %struct.LookupArrayInfo, ptr %251, i32 0, i32 1
  %253 = load i32, ptr %252, align 8
  %254 = icmp sge i32 %250, %253
  br i1 %254, label %255, label %256

255:                                              ; preds = %245
  store i32 0, ptr %4, align 4
  br label %287

256:                                              ; preds = %245
  %257 = load ptr, ptr %7, align 8
  %258 = getelementptr inbounds %struct.LookupArrayInfo, ptr %257, i32 0, i32 2
  %259 = load ptr, ptr %258, align 8
  %260 = load i16, ptr %21, align 2
  %261 = zext i16 %260 to i64
  %262 = getelementptr inbounds i8, ptr %259, i64 %261
  %263 = load i8, ptr %262, align 1
  %264 = load ptr, ptr %17, align 8
  %265 = getelementptr inbounds i8, ptr %264, i32 1
  store ptr %265, ptr %17, align 8
  store i8 %263, ptr %264, align 1
  br label %266

266:                                              ; preds = %256
  %267 = load i32, ptr %8, align 4
  %268 = add nsw i32 %267, -1
  store i32 %268, ptr %8, align 4
  br label %242, !llvm.loop !44

269:                                              ; preds = %242
  %270 = load ptr, ptr %6, align 8
  %271 = getelementptr inbounds %struct.mlib_image, ptr %270, i32 0, i32 4
  %272 = load i32, ptr %271, align 8
  %273 = load ptr, ptr %12, align 8
  %274 = sext i32 %272 to i64
  %275 = getelementptr inbounds i8, ptr %273, i64 %274
  store ptr %275, ptr %12, align 8
  %276 = load ptr, ptr %5, align 8
  %277 = getelementptr inbounds %struct.mlib_image, ptr %276, i32 0, i32 4
  %278 = load i32, ptr %277, align 8
  %279 = sdiv i32 %278, 2
  %280 = load ptr, ptr %11, align 8
  %281 = sext i32 %279 to i64
  %282 = getelementptr inbounds i16, ptr %280, i64 %281
  store ptr %282, ptr %11, align 8
  br label %283

283:                                              ; preds = %269
  %284 = load i32, ptr %9, align 4
  %285 = add nsw i32 %284, 1
  store i32 %285, ptr %9, align 4
  br label %45, !llvm.loop !45

286:                                              ; preds = %45
  store i32 1, ptr %4, align 4
  br label %287

287:                                              ; preds = %286, %255, %115, %77, %43
  %288 = load i32, ptr %4, align 4
  ret i32 %288
}