; Function Attrs: nofree norecurse nosync nounwind memory(readwrite, inaccessiblemem: none) uwtable
define internal fastcc range(i32 0, 2) i32 @lookupShortData(ptr nocapture noundef readonly %0, ptr nocapture noundef readonly %1, ptr nocapture noundef readonly %2) unnamed_addr #4 {
  %4 = getelementptr inbounds i8, ptr %0, i64 8
  %5 = load i32, ptr %4, align 8
  %6 = getelementptr inbounds i8, ptr %1, i64 8
  %7 = load i32, ptr %6, align 8
  %.not = icmp eq i32 %5, %7
  br i1 %.not, label %8, label %.loopexit

8:                                                ; preds = %3
  %9 = getelementptr inbounds i8, ptr %1, i64 24
  %10 = load ptr, ptr %9, align 8
  %11 = getelementptr inbounds i8, ptr %0, i64 24
  %12 = load ptr, ptr %11, align 8
  %13 = getelementptr inbounds i8, ptr %0, i64 12
  %14 = load i32, ptr %13, align 4
  %15 = getelementptr inbounds i8, ptr %1, i64 12
  %16 = load i32, ptr %15, align 4
  %.not76 = icmp eq i32 %14, %16
  br i1 %.not76, label %.preheader85, label %.loopexit

.preheader85:                                     ; preds = %8
  %17 = icmp sgt i32 %14, 0
  br i1 %17, label %.lr.ph113, label %.loopexit

.lr.ph113:                                        ; preds = %.preheader85
  %18 = getelementptr inbounds i8, ptr %2, i64 8
  %19 = getelementptr inbounds i8, ptr %2, i64 16
  %20 = getelementptr inbounds i8, ptr %1, i64 16
  %21 = getelementptr inbounds i8, ptr %0, i64 16
  br label %22

22:                                               ; preds = %.lr.ph113, %._crit_edge109
  %.067112 = phi i32 [ 0, %.lr.ph113 ], [ %137, %._crit_edge109 ]
  %.074111 = phi ptr [ %12, %.lr.ph113 ], [ %136, %._crit_edge109 ]
  %.075110 = phi ptr [ %10, %.lr.ph113 ], [ %132, %._crit_edge109 ]
  %23 = load i32, ptr %4, align 8
  %24 = ptrtoint ptr %.075110 to i64
  %25 = and i64 %24, 3
  %26 = icmp ne i64 %25, 0
  %27 = icmp sgt i32 %23, 0
  %28 = select i1 %26, i1 %27, i1 false
  br i1 %28, label %.lr.ph, label %._crit_edge

.lr.ph:                                           ; preds = %22, %32
  %.06894 = phi ptr [ %38, %32 ], [ %.075110, %22 ]
  %.07093 = phi ptr [ %33, %32 ], [ %.074111, %22 ]
  %.07392 = phi i32 [ %39, %32 ], [ %23, %22 ]
  %29 = load i16, ptr %.07093, align 2
  %30 = zext i16 %29 to i32
  %31 = load i32, ptr %18, align 8
  %.not81 = icmp sgt i32 %31, %30
  br i1 %.not81, label %32, label %.loopexit

32:                                               ; preds = %.lr.ph
  %33 = getelementptr inbounds i8, ptr %.07093, i64 2
  %34 = load ptr, ptr %19, align 8
  %35 = zext i16 %29 to i64
  %36 = getelementptr inbounds i8, ptr %34, i64 %35
  %37 = load i8, ptr %36, align 1
  %38 = getelementptr inbounds i8, ptr %.06894, i64 1
  store i8 %37, ptr %.06894, align 1
  %39 = add nsw i32 %.07392, -1
  %40 = ptrtoint ptr %38 to i64
  %41 = and i64 %40, 3
  %42 = icmp ne i64 %41, 0
  %43 = icmp sgt i32 %.07392, 1
  %44 = select i1 %42, i1 %43, i1 false
  br i1 %44, label %.lr.ph, label %._crit_edge, !llvm.loop !90

._crit_edge:                                      ; preds = %32, %22
  %.073.lcssa = phi i32 [ %23, %22 ], [ %39, %32 ]
  %.070.lcssa = phi ptr [ %.074111, %22 ], [ %33, %32 ]
  %.068.lcssa = phi ptr [ %.075110, %22 ], [ %38, %32 ]
  %45 = srem i32 %.073.lcssa, 8
  %46 = sdiv i32 %.073.lcssa, 8
  %.073.lcssa.off = add i32 %.073.lcssa, 7
  %.not7798 = icmp ult i32 %.073.lcssa.off, 15
  br i1 %.not7798, label %.preheader82, label %.preheader

.preheader82:                                     ; preds = %53, %._crit_edge
  %.171.lcssa = phi ptr [ %.070.lcssa, %._crit_edge ], [ %117, %53 ]
  %.169.lcssa = phi ptr [ %.068.lcssa, %._crit_edge ], [ %116, %53 ]
  %.not78104 = icmp eq i32 %45, 0
  br i1 %.not78104, label %._crit_edge109, label %.lr.ph108

.preheader:                                       ; preds = %._crit_edge, %53
  %.065101 = phi i32 [ %118, %53 ], [ %46, %._crit_edge ]
  %.169100 = phi ptr [ %116, %53 ], [ %.068.lcssa, %._crit_edge ]
  %.17199 = phi ptr [ %117, %53 ], [ %.070.lcssa, %._crit_edge ]
  %47 = load i32, ptr %18, align 8
  br label %49

48:                                               ; preds = %49
  %indvars.iv.next = add nuw nsw i64 %indvars.iv, 1
  %exitcond.not = icmp eq i64 %indvars.iv.next, 8
  br i1 %exitcond.not, label %53, label %49, !llvm.loop !91

49:                                               ; preds = %.preheader, %48
  %indvars.iv = phi i64 [ 0, %.preheader ], [ %indvars.iv.next, %48 ]
  %50 = getelementptr inbounds i16, ptr %.17199, i64 %indvars.iv
  %51 = load i16, ptr %50, align 2
  %52 = zext i16 %51 to i32
  %.not80 = icmp sgt i32 %47, %52
  br i1 %.not80, label %48, label %.loopexit

53:                                               ; preds = %48
  %54 = load ptr, ptr %19, align 8
  %55 = getelementptr inbounds i8, ptr %.17199, i64 6
  %56 = load i16, ptr %55, align 2
  %57 = zext i16 %56 to i64
  %58 = getelementptr inbounds i8, ptr %54, i64 %57
  %59 = load i8, ptr %58, align 1
  %60 = zext i8 %59 to i32
  %61 = shl nuw i32 %60, 24
  %62 = getelementptr inbounds i8, ptr %.17199, i64 4
  %63 = load i16, ptr %62, align 2
  %64 = zext i16 %63 to i64
  %65 = getelementptr inbounds i8, ptr %54, i64 %64
  %66 = load i8, ptr %65, align 1
  %67 = zext i8 %66 to i32
  %68 = shl nuw nsw i32 %67, 16
  %69 = or disjoint i32 %68, %61
  %70 = getelementptr inbounds i8, ptr %.17199, i64 2
  %71 = load i16, ptr %70, align 2
  %72 = zext i16 %71 to i64
  %73 = getelementptr inbounds i8, ptr %54, i64 %72
  %74 = load i8, ptr %73, align 1
  %75 = zext i8 %74 to i32
  %76 = shl nuw nsw i32 %75, 8
  %77 = or disjoint i32 %69, %76
  %78 = load i16, ptr %.17199, align 2
  %79 = zext i16 %78 to i64
  %80 = getelementptr inbounds i8, ptr %54, i64 %79
  %81 = load i8, ptr %80, align 1
  %82 = zext i8 %81 to i32
  %83 = or disjoint i32 %77, %82
  store i32 %83, ptr %.169100, align 4
  %84 = load ptr, ptr %19, align 8
  %85 = getelementptr inbounds i8, ptr %.17199, i64 14
  %86 = load i16, ptr %85, align 2
  %87 = zext i16 %86 to i64
  %88 = getelementptr inbounds i8, ptr %84, i64 %87
  %89 = load i8, ptr %88, align 1
  %90 = zext i8 %89 to i32
  %91 = shl nuw i32 %90, 24
  %92 = getelementptr inbounds i8, ptr %.17199, i64 12
  %93 = load i16, ptr %92, align 2
  %94 = zext i16 %93 to i64
  %95 = getelementptr inbounds i8, ptr %84, i64 %94
  %96 = load i8, ptr %95, align 1
  %97 = zext i8 %96 to i32
  %98 = shl nuw nsw i32 %97, 16
  %99 = or disjoint i32 %98, %91
  %100 = getelementptr inbounds i8, ptr %.17199, i64 10
  %101 = load i16, ptr %100, align 2
  %102 = zext i16 %101 to i64
  %103 = getelementptr inbounds i8, ptr %84, i64 %102
  %104 = load i8, ptr %103, align 1
  %105 = zext i8 %104 to i32
  %106 = shl nuw nsw i32 %105, 8
  %107 = or disjoint i32 %99, %106
  %108 = getelementptr inbounds i8, ptr %.17199, i64 8
  %109 = load i16, ptr %108, align 2
  %110 = zext i16 %109 to i64
  %111 = getelementptr inbounds i8, ptr %84, i64 %110
  %112 = load i8, ptr %111, align 1
  %113 = zext i8 %112 to i32
  %114 = or disjoint i32 %107, %113
  %115 = getelementptr inbounds i8, ptr %.169100, i64 4
  store i32 %114, ptr %115, align 4
  %116 = getelementptr inbounds i8, ptr %.169100, i64 8
  %117 = getelementptr inbounds i8, ptr %.17199, i64 16
  %118 = add nsw i32 %.065101, -1
  %.not77 = icmp eq i32 %118, 0
  br i1 %.not77, label %.preheader82, label %.preheader, !llvm.loop !92

.lr.ph108:                                        ; preds = %.preheader82, %122
  %.1107 = phi i32 [ %129, %122 ], [ %45, %.preheader82 ]
  %.2106 = phi ptr [ %128, %122 ], [ %.169.lcssa, %.preheader82 ]
  %.272105 = phi ptr [ %123, %122 ], [ %.171.lcssa, %.preheader82 ]
  %119 = load i16, ptr %.272105, align 2
  %120 = zext i16 %119 to i32
  %121 = load i32, ptr %18, align 8
  %.not79 = icmp sgt i32 %121, %120
  br i1 %.not79, label %122, label %.loopexit

122:                                              ; preds = %.lr.ph108
  %123 = getelementptr inbounds i8, ptr %.272105, i64 2
  %124 = load ptr, ptr %19, align 8
  %125 = zext i16 %119 to i64
  %126 = getelementptr inbounds i8, ptr %124, i64 %125
  %127 = load i8, ptr %126, align 1
  %128 = getelementptr inbounds i8, ptr %.2106, i64 1
  store i8 %127, ptr %.2106, align 1
  %129 = add nsw i32 %.1107, -1
  %.not78 = icmp eq i32 %129, 0
  br i1 %.not78, label %._crit_edge109, label %.lr.ph108, !llvm.loop !93

._crit_edge109:                                   ; preds = %122, %.preheader82
  %130 = load i32, ptr %20, align 8
  %131 = sext i32 %130 to i64
  %132 = getelementptr inbounds i8, ptr %.075110, i64 %131
  %133 = load i32, ptr %21, align 8
  %134 = sdiv i32 %133, 2
  %135 = sext i32 %134 to i64
  %136 = getelementptr inbounds i16, ptr %.074111, i64 %135
  %137 = add nuw nsw i32 %.067112, 1
  %138 = load i32, ptr %13, align 4
  %139 = icmp slt i32 %137, %138
  br i1 %139, label %22, label %.loopexit, !llvm.loop !94

.loopexit:                                        ; preds = %._crit_edge109, %.lr.ph, %.lr.ph108, %49, %.preheader85, %3, %8
  %.0 = phi i32 [ 0, %8 ], [ 0, %3 ], [ 1, %.preheader85 ], [ 0, %49 ], [ 0, %.lr.ph108 ], [ 0, %.lr.ph ], [ 1, %._crit_edge109 ]
  ret i32 %.0
}